; Function Attrs: nofree nounwind uwtable
define noalias noundef ptr @Acec_TreeCarryMap(ptr noundef readonly captures(none) %0, ptr noundef readonly captures(none) %1, ptr noundef readonly captures(none) %2) local_unnamed_addr #2 {
  %4 = getelementptr i8, ptr %0, i64 24
  %.val22 = load i32, ptr %4, align 8
  %5 = tail call noalias dereferenceable_or_null(16) ptr @malloc(i64 noundef 16) #22
  %6 = add i32 %.val22, -1
  %or.cond.i.i = icmp ult i32 %6, 15
  %spec.store.select.i.i = select i1 %or.cond.i.i, i32 16, i32 %.val22
  %7 = getelementptr inbounds nuw i8, ptr %5, i64 4
  store i32 %spec.store.select.i.i, ptr %5, align 8
  %.not.i.i = icmp eq i32 %spec.store.select.i.i, 0
  br i1 %.not.i.i, label %Vec_IntAlloc.exit.thread.i, label %Vec_IntAlloc.exit.i

Vec_IntAlloc.exit.thread.i:                       ; preds = %3
  %8 = getelementptr inbounds nuw i8, ptr %5, i64 8
  store ptr null, ptr %8, align 8
  store i32 %.val22, ptr %7, align 4
  br label %Vec_IntStartFull.exit

Vec_IntAlloc.exit.i:                              ; preds = %3
  %9 = sext i32 %spec.store.select.i.i to i64
  %10 = shl nsw i64 %9, 2
  %11 = tail call noalias ptr @malloc(i64 noundef %10) #22
  %12 = getelementptr inbounds nuw i8, ptr %5, i64 8
  store ptr %11, ptr %12, align 8
  store i32 %.val22, ptr %7, align 4
  %.not.i = icmp eq ptr %11, null
  br i1 %.not.i, label %Vec_IntStartFull.exit, label %13

13:                                               ; preds = %Vec_IntAlloc.exit.i
  %14 = sext i32 %.val22 to i64
  %15 = shl nsw i64 %14, 2
  tail call void @llvm.memset.p0.i64(ptr nonnull align 4 %11, i8 -1, i64 %15, i1 false)
  br label %Vec_IntStartFull.exit

Vec_IntStartFull.exit:                            ; preds = %Vec_IntAlloc.exit.thread.i, %Vec_IntAlloc.exit.i, %13
  %.val23 = phi ptr [ null, %Vec_IntAlloc.exit.thread.i ], [ null, %Vec_IntAlloc.exit.i ], [ %11, %13 ]
  %16 = getelementptr i8, ptr %2, i64 4
  %.val26 = load i32, ptr %16, align 4
  %17 = icmp sgt i32 %.val26, 0
  br i1 %17, label %.lr.ph28, label %.critedge

.lr.ph28:                                         ; preds = %Vec_IntStartFull.exit
  %18 = getelementptr i8, ptr %2, i64 8
  %19 = getelementptr i8, ptr %1, i64 8
  %.val18 = load ptr, ptr %18, align 8
  %20 = zext nneg i32 %.val26 to i64
  br label %21

21:                                               ; preds = %.lr.ph28, %.critedge2
  %indvars.iv30 = phi i64 [ 0, %.lr.ph28 ], [ %indvars.iv.next31, %.critedge2 ]
  %22 = getelementptr inbounds nuw %struct.Vec_Int_t_, ptr %.val18, i64 %indvars.iv30
  %23 = getelementptr i8, ptr %22, i64 4
  %.val1924 = load i32, ptr %23, align 4
  %24 = icmp sgt i32 %.val1924, 0
  br i1 %24, label %.lr.ph, label %.critedge2

.lr.ph:                                           ; preds = %21
  %25 = getelementptr i8, ptr %22, i64 8
  %.val20.pre = load ptr, ptr %19, align 8
  %invariant.gep = getelementptr i8, ptr %.val20.pre, i64 16
  br label %26

26:                                               ; preds = %.lr.ph, %26
  %indvars.iv = phi i64 [ 0, %.lr.ph ], [ %indvars.iv.next, %26 ]
  %.val21 = load ptr, ptr %25, align 8
  %27 = getelementptr inbounds nuw i32, ptr %.val21, i64 %indvars.iv
  %28 = load i32, ptr %27, align 4
  %29 = mul nsw i32 %28, 6
  %30 = sext i32 %29 to i64
  %gep = getelementptr i32, ptr %invariant.gep, i64 %30
  %31 = load i32, ptr %gep, align 4
  %32 = sext i32 %31 to i64
  %33 = getelementptr inbounds i32, ptr %.val23, i64 %32
  store i32 %28, ptr %33, align 4
  %indvars.iv.next = add nuw nsw i64 %indvars.iv, 1
  %.val19 = load i32, ptr %23, align 4
  %34 = sext i32 %.val19 to i64
  %35 = icmp slt i64 %indvars.iv.next, %34
  br i1 %35, label %26, label %.critedge2, !llvm.loop !34

.critedge2:                                       ; preds = %26, %21
  %indvars.iv.next31 = add nuw nsw i64 %indvars.iv30, 1
  %36 = icmp samesign ult i64 %indvars.iv.next31, %20
  br i1 %36, label %21, label %.critedge, !llvm.loop !35

.critedge:                                        ; preds = %.critedge2, %Vec_IntStartFull.exit
  ret ptr %5
}